target datalayout = "e-m:e-p270:32:32-p271:32:32-p272:64:64-i64:64-i128:128-f80:128-n8:16:32:64-S128"
target triple = "x86_64-pc-linux-gnu"

@_ZN15G1FromCardCache6_cacheE = hidden global ptr null, align 8
@g_assert_poison = external global ptr, align 8
@.str = private unnamed_addr constant [44 x i8] c"src/hotspot/share/gc/g1/g1FromCardCache.cpp\00", align 1
@.str.8 = private unnamed_addr constant [67 x i8] c"guarantee((size_t)start_idx + new_num_regions <= max_uintx) failed\00", align 1
@.str.9 = private unnamed_addr constant [61 x i8] c"Trying to invalidate beyond maximum region, from %u size %lu\00", align 1
@G1ConcRefinementThreads = external global i32, align 4
@ConcGCThreads = external global i32, align 4
@ParallelGCThreads = external global i32, align 4

; Function Attrs: mustprogress nounwind uwtable
define linkonce_odr hidden noundef i32 @_Z4MAX2IjET_S0_S0_(i32 noundef %0, i32 noundef %1) #1 comdat {
  %3 = alloca i32, align 4
  %4 = alloca i32, align 4
  store i32 %0, ptr %3, align 4
  store i32 %1, ptr %4, align 4
  %5 = load i32, ptr %3, align 4
  %6 = load i32, ptr %4, align 4
  %7 = icmp ugt i32 %5, %6
  br i1 %7, label %8, label %10

8:                                                ; preds = %2
  %9 = load i32, ptr %3, align 4
  br label %12

10:                                               ; preds = %2
  %11 = load i32, ptr %4, align 4
  br label %12

12:                                               ; preds = %10, %8
  %13 = phi i32 [ %9, %8 ], [ %11, %10 ]
  ret i32 %13
}

; Function Attrs: mustprogress nounwind uwtable
define linkonce_odr hidden void @_ZN15G1FromCardCache3setEjjm(i32 noundef %0, i32 noundef %1, i64 noundef %2) #1 comdat align 2 {
  %4 = alloca i32, align 4
  %5 = alloca i32, align 4
  %6 = alloca i64, align 8
  store i32 %0, ptr %4, align 4
  store i32 %1, ptr %5, align 4
  store i64 %2, ptr %6, align 8
  %7 = load i64, ptr %6, align 8
  %8 = load ptr, ptr @_ZN15G1FromCardCache6_cacheE, align 8
  %9 = load i32, ptr %5, align 4
  %10 = zext i32 %9 to i64
  %11 = getelementptr inbounds ptr, ptr %8, i64 %10
  %12 = load ptr, ptr %11, align 8
  %13 = load i32, ptr %4, align 4
  %14 = zext i32 %13 to i64
  %15 = getelementptr inbounds i64, ptr %12, i64 %14
  store i64 %7, ptr %15, align 8
  ret void
}

; Function Attrs: mustprogress nounwind uwtable
define hidden noundef i32 @_ZN15G1FromCardCache16num_par_rem_setsEv() #1 align 2 {
  %1 = call noundef i32 @_ZN19G1DirtyCardQueueSet11num_par_idsEv()
  %2 = load i32, ptr @G1ConcRefinementThreads, align 4
  %3 = add i32 %1, %2
  %4 = load i32, ptr @ConcGCThreads, align 4
  %5 = load i32, ptr @ParallelGCThreads, align 4
  %6 = call noundef i32 @_Z4MAX2IjET_S0_S0_(i32 noundef %4, i32 noundef %5)
  %7 = add i32 %3, %6
  ret i32 %7
}

; Function Attrs: mustprogress nounwind uwtable
define hidden void @_ZN15G1FromCardCache10invalidateEjm(i32 noundef %0, i64 noundef %1) #1 align 2 {
  %3 = alloca i32, align 4
  %4 = alloca i64, align 8
  %5 = alloca i32, align 4
  %6 = alloca i32, align 4
  %7 = alloca i32, align 4
  store i32 %0, ptr %3, align 4
  store i64 %1, ptr %4, align 8
  br label %8

8:                                                ; preds = %2
  %9 = load i32, ptr %3, align 4
  %10 = zext i32 %9 to i64
  %11 = load i64, ptr %4, align 8
  %12 = add i64 %10, %11
  %13 = icmp ule i64 %12, -1
  br i1 %13, label %18, label %14

14:                                               ; preds = %8
  %15 = load ptr, ptr @g_assert_poison, align 8
  store i8 88, ptr %15, align 1
  %16 = load i32, ptr %3, align 4
  %17 = load i64, ptr %4, align 8
  call void (ptr, i32, ptr, ptr, ...) @_Z15report_vm_errorPKciS0_S0_z(ptr noundef @.str, i32 noundef 61, ptr noundef @.str.8, ptr noundef @.str.9, i32 noundef %16, i64 noundef %17) #4
  unreachable

18:                                               ; preds = %8
  br label %19

19:                                               ; preds = %18
  %20 = load i32, ptr %3, align 4
  %21 = load i64, ptr %4, align 8
  %22 = trunc i64 %21 to i32
  %23 = add i32 %20, %22
  store i32 %23, ptr %5, align 4
  store i32 0, ptr %6, align 4
  br label %24

24:                                               ; preds = %41, %19
  %25 = load i32, ptr %6, align 4
  %26 = call noundef i32 @_ZN15G1FromCardCache16num_par_rem_setsEv()
  %27 = icmp ult i32 %25, %26
  br i1 %27, label %28, label %44

28:                                               ; preds = %24
  %29 = load i32, ptr %3, align 4
  store i32 %29, ptr %7, align 4
  br label %30

30:                                               ; preds = %37, %28
  %31 = load i32, ptr %7, align 4
  %32 = load i32, ptr %5, align 4
  %33 = icmp ult i32 %31, %32
  br i1 %33, label %34, label %40

34:                                               ; preds = %30
  %35 = load i32, ptr %6, align 4
  %36 = load i32, ptr %7, align 4
  call void @_ZN15G1FromCardCache3setEjjm(i32 noundef %35, i32 noundef %36, i64 noundef 0)
  br label %37

37:                                               ; preds = %34
  %38 = load i32, ptr %7, align 4
  %39 = add i32 %38, 1
  store i32 %39, ptr %7, align 4
  br label %30, !llvm.loop !8

40:                                               ; preds = %30
  br label %41

41:                                               ; preds = %40
  %42 = load i32, ptr %6, align 4
  %43 = add i32 %42, 1
  store i32 %43, ptr %6, align 4
  br label %24, !llvm.loop !9

44:                                               ; preds = %24
  ret void
}