; Function Attrs: mustprogress nounwind uwtable
define hidden void @_ZN15G1FromCardCache10invalidateEjm(i32 noundef %0, i64 noundef %1) local_unnamed_addr #0 align 2 {
  %3 = trunc i64 %1 to i32
  %4 = add i32 %3, %0
  %5 = tail call noundef i32 @_ZN19G1DirtyCardQueueSet11num_par_idsEv() #5
  %6 = load i32, ptr @G1ConcRefinementThreads, align 4
  %7 = add i32 %6, %5
  %8 = load i32, ptr @ConcGCThreads, align 4
  %9 = load i32, ptr @ParallelGCThreads, align 4
  %10 = tail call noundef i32 @llvm.umax.i32(i32 %8, i32 %9)
  %11 = sub i32 0, %10
  %.not = icmp eq i32 %7, %11
  br i1 %.not, label %._crit_edge17, label %.preheader.lr.ph

.preheader.lr.ph:                                 ; preds = %2
  %12 = icmp ugt i32 %4, %0
  br i1 %12, label %.preheader.us.preheader, label %.preheader

.preheader.us.preheader:                          ; preds = %.preheader.lr.ph
  %13 = zext i32 %0 to i64
  %wide.trip.count = zext i32 %4 to i64
  br label %.preheader.us

.preheader.us:                                    ; preds = %.preheader.us.preheader, %._crit_edge.us
  %indvars.iv20 = phi i64 [ 0, %.preheader.us.preheader ], [ %indvars.iv.next21, %._crit_edge.us ]
  br label %14

14:                                               ; preds = %.preheader.us, %14
  %indvars.iv = phi i64 [ %13, %.preheader.us ], [ %indvars.iv.next, %14 ]
  %15 = load ptr, ptr @_ZN15G1FromCardCache6_cacheE, align 8
  %16 = getelementptr inbounds ptr, ptr %15, i64 %indvars.iv
  %17 = load ptr, ptr %16, align 8
  %18 = getelementptr inbounds i64, ptr %17, i64 %indvars.iv20
  store i64 0, ptr %18, align 8
  %indvars.iv.next = add nuw nsw i64 %indvars.iv, 1
  %exitcond.not = icmp eq i64 %indvars.iv.next, %wide.trip.count
  br i1 %exitcond.not, label %._crit_edge.us, label %14, !llvm.loop !8

._crit_edge.us:                                   ; preds = %14
  %indvars.iv.next21 = add nuw nsw i64 %indvars.iv20, 1
  %19 = tail call noundef i32 @_ZN19G1DirtyCardQueueSet11num_par_idsEv() #5
  %20 = load i32, ptr @G1ConcRefinementThreads, align 4
  %21 = add i32 %20, %19
  %22 = load i32, ptr @ConcGCThreads, align 4
  %23 = load i32, ptr @ParallelGCThreads, align 4
  %24 = tail call noundef i32 @llvm.umax.i32(i32 %22, i32 %23)
  %25 = add i32 %21, %24
  %26 = zext i32 %25 to i64
  %27 = icmp ult i64 %indvars.iv.next21, %26
  br i1 %27, label %.preheader.us, label %._crit_edge17, !llvm.loop !9

.preheader:                                       ; preds = %.preheader.lr.ph, %.preheader
  %.01416 = phi i32 [ %28, %.preheader ], [ 0, %.preheader.lr.ph ]
  %28 = add nuw i32 %.01416, 1
  %29 = tail call noundef i32 @_ZN19G1DirtyCardQueueSet11num_par_idsEv() #5
  %30 = load i32, ptr @G1ConcRefinementThreads, align 4
  %31 = add i32 %30, %29
  %32 = load i32, ptr @ConcGCThreads, align 4
  %33 = load i32, ptr @ParallelGCThreads, align 4
  %34 = tail call noundef i32 @llvm.umax.i32(i32 %32, i32 %33)
  %35 = add i32 %31, %34
  %36 = icmp ult i32 %28, %35
  br i1 %36, label %.preheader, label %._crit_edge17, !llvm.loop !9

._crit_edge17:                                    ; preds = %.preheader, %._crit_edge.us, %2
  ret void
}